; Function Attrs: nounwind uwtable
define range(i32 0, 2) i32 @ossl_qtx_calculate_ciphertext_payload_len(ptr noundef %0, i32 noundef %1, i64 noundef %2, ptr noundef writeonly captures(none) initializes((0, 8)) %3) local_unnamed_addr #0 {
  %5 = getelementptr inbounds nuw i8, ptr %0, i64 16
  %6 = tail call ptr @ossl_qrl_enc_level_set_get(ptr noundef nonnull %5, i32 noundef %1, i32 noundef 1) #11
  %7 = icmp eq ptr %6, null
  br i1 %7, label %14, label %8

8:                                                ; preds = %4
  %9 = getelementptr inbounds nuw i8, ptr %6, i64 96
  %10 = load i32, ptr %9, align 8, !tbaa !39
  %11 = tail call i32 @ossl_qrl_get_suite_cipher_tag_len(i32 noundef %10) #11
  %12 = zext i32 %11 to i64
  %13 = add i64 %2, %12
  br label %14

14:                                               ; preds = %4, %8
  %storemerge = phi i64 [ %13, %8 ], [ 0, %4 ]
  %.0 = phi i32 [ 1, %8 ], [ 0, %4 ]
  store i64 %storemerge, ptr %3, align 8, !tbaa !46
  ret i32 %.0
}